target datalayout = "e-m:e-p270:32:32-p271:32:32-p272:64:64-i64:64-i128:128-f80:128-n8:16:32:64-S128"
target triple = "x86_64-pc-linux-gnu"

; Function Attrs: nounwind uwtable
define i32 @hwloc_set_membind(ptr noundef %0, ptr noundef %1, i32 noundef %2, i32 noundef %3) #0 {
  %5 = alloca ptr, align 8
  %6 = alloca ptr, align 8
  %7 = alloca i32, align 4
  %8 = alloca i32, align 4
  %9 = alloca i32, align 4
  %10 = alloca ptr, align 8
  store ptr %0, ptr %5, align 8, !tbaa !3
  store ptr %1, ptr %6, align 8, !tbaa !8
  store i32 %2, ptr %7, align 4, !tbaa !10
  store i32 %3, ptr %8, align 4, !tbaa !10
  call void @llvm.lifetime.start.p0(i64 4, ptr %9) #9
  %11 = load i32, ptr %8, align 4, !tbaa !10
  %12 = and i32 %11, 32
  %13 = icmp ne i32 %12, 0
  br i1 %13, label %14, label %20

14:                                               ; preds = %4
  %15 = load ptr, ptr %5, align 8, !tbaa !3
  %16 = load ptr, ptr %6, align 8, !tbaa !8
  %17 = load i32, ptr %7, align 4, !tbaa !10
  %18 = load i32, ptr %8, align 4, !tbaa !10
  %19 = call i32 @hwloc_set_membind_by_nodeset(ptr noundef %15, ptr noundef %16, i32 noundef %17, i32 noundef %18)
  store i32 %19, ptr %9, align 4, !tbaa !10
  br label %36

20:                                               ; preds = %4
  call void @llvm.lifetime.start.p0(i64 8, ptr %10) #9
  %21 = call noalias ptr @hwloc_bitmap_alloc()
  store ptr %21, ptr %10, align 8, !tbaa !8
  %22 = load ptr, ptr %5, align 8, !tbaa !3
  %23 = load ptr, ptr %10, align 8, !tbaa !8
  %24 = load ptr, ptr %6, align 8, !tbaa !8
  %25 = call i32 @hwloc_fix_membind_cpuset(ptr noundef %22, ptr noundef %23, ptr noundef %24)
  %26 = icmp ne i32 %25, 0
  br i1 %26, label %27, label %28

27:                                               ; preds = %20
  store i32 -1, ptr %9, align 4, !tbaa !10
  br label %34

28:                                               ; preds = %20
  %29 = load ptr, ptr %5, align 8, !tbaa !3
  %30 = load ptr, ptr %10, align 8, !tbaa !8
  %31 = load i32, ptr %7, align 4, !tbaa !10
  %32 = load i32, ptr %8, align 4, !tbaa !10
  %33 = call i32 @hwloc_set_membind_by_nodeset(ptr noundef %29, ptr noundef %30, i32 noundef %31, i32 noundef %32)
  store i32 %33, ptr %9, align 4, !tbaa !10
  br label %34

34:                                               ; preds = %28, %27
  %35 = load ptr, ptr %10, align 8, !tbaa !8
  call void @hwloc_bitmap_free(ptr noundef %35)
  call void @llvm.lifetime.end.p0(i64 8, ptr %10) #9
  br label %36

36:                                               ; preds = %34, %14
  %37 = load i32, ptr %9, align 4, !tbaa !10
  call void @llvm.lifetime.end.p0(i64 4, ptr %9) #9
  ret i32 %37
}