; Function Attrs: nounwind uwtable
define i32 @hwloc_set_membind(ptr noundef %0, ptr noundef %1, i32 noundef %2, i32 noundef %3) local_unnamed_addr #0 {
  %5 = and i32 %3, 32
  %.not = icmp eq i32 %5, 0
  br i1 %.not, label %8, label %6

6:                                                ; preds = %4
  %7 = tail call fastcc i32 @hwloc_set_membind_by_nodeset(ptr noundef %0, ptr noundef %1, i32 noundef %2, i32 noundef %3)
  br label %14

8:                                                ; preds = %4
  %9 = tail call noalias ptr @hwloc_bitmap_alloc() #14
  %10 = tail call fastcc i32 @hwloc_fix_membind_cpuset(ptr noundef %0, ptr noundef %9, ptr noundef %1)
  %.not13 = icmp eq i32 %10, 0
  br i1 %.not13, label %11, label %13

11:                                               ; preds = %8
  %12 = tail call fastcc i32 @hwloc_set_membind_by_nodeset(ptr noundef %0, ptr noundef %9, i32 noundef %2, i32 noundef %3)
  br label %13

13:                                               ; preds = %8, %11
  %.1 = phi i32 [ %12, %11 ], [ -1, %8 ]
  tail call void @hwloc_bitmap_free(ptr noundef %9) #14
  br label %14

14:                                               ; preds = %13, %6
  %.0 = phi i32 [ %7, %6 ], [ %.1, %13 ]
  ret i32 %.0
}